target datalayout = "e-m:e-p270:32:32-p271:32:32-p272:64:64-i64:64-i128:128-f80:128-n8:16:32:64-S128"
target triple = "x86_64-pc-linux-gnu"

@exit_code = external global i32, align 4
@quiet_flag = external global i32, align 4
@stderr = external global ptr, align 8
@.str.5 = private unnamed_addr constant [15 x i8] c"%s for job %s\0A\00", align 1
@.str.13 = private unnamed_addr constant [7 x i8] c"jobid=\00", align 1
@.str.14 = private unnamed_addr constant [5 x i8] c"job=\00", align 1

; Function Attrs: nounwind uwtable
define dso_local void @scontrol_top_job(ptr noundef %0) #0 {
  %2 = alloca ptr, align 8
  %3 = alloca i32, align 4
  store ptr %0, ptr %2, align 8
  call void @llvm.lifetime.start.p0(i64 4, ptr %3) #8
  %4 = load ptr, ptr %2, align 8
  %5 = call i32 @xstrncasecmp(ptr noundef %4, ptr noundef @.str.13, i64 noundef 6)
  %6 = icmp ne i32 %5, 0
  br i1 %6, label %10, label %7

7:                                                ; preds = %1
  %8 = load ptr, ptr %2, align 8
  %9 = getelementptr inbounds i8, ptr %8, i64 6
  store ptr %9, ptr %2, align 8
  br label %10

10:                                               ; preds = %7, %1
  %11 = load ptr, ptr %2, align 8
  %12 = call i32 @xstrncasecmp(ptr noundef %11, ptr noundef @.str.14, i64 noundef 4)
  %13 = icmp ne i32 %12, 0
  br i1 %13, label %17, label %14

14:                                               ; preds = %10
  %15 = load ptr, ptr %2, align 8
  %16 = getelementptr inbounds i8, ptr %15, i64 4
  store ptr %16, ptr %2, align 8
  br label %17

17:                                               ; preds = %14, %10
  %18 = load ptr, ptr %2, align 8
  %19 = call i32 @slurm_top_job(ptr noundef %18)
  store i32 %19, ptr %3, align 4
  %20 = load i32, ptr %3, align 4
  %21 = icmp ne i32 %20, 0
  br i1 %21, label %22, label %33

22:                                               ; preds = %17
  store i32 1, ptr @exit_code, align 4
  %23 = load i32, ptr @quiet_flag, align 4
  %24 = icmp ne i32 %23, 1
  br i1 %24, label %25, label %32

25:                                               ; preds = %22
  %26 = load ptr, ptr @stderr, align 8
  %27 = call ptr @__errno_location() #9
  %28 = load i32, ptr %27, align 4
  %29 = call ptr @slurm_strerror(i32 noundef %28)
  %30 = load ptr, ptr %2, align 8
  %31 = call i32 (ptr, ptr, ...) @fprintf(ptr noundef %26, ptr noundef @.str.5, ptr noundef %29, ptr noundef %30) #8
  br label %32

32:                                               ; preds = %25, %22
  br label %33

33:                                               ; preds = %32, %17
  call void @llvm.lifetime.end.p0(i64 4, ptr %3) #8
  ret void
}