; Function Attrs: nounwind uwtable
define dso_local void @scontrol_top_job(ptr noundef %0) local_unnamed_addr #0 {
  %2 = tail call i32 @xstrncasecmp(ptr noundef %0, ptr noundef nonnull @.str.13, i64 noundef 6) #13
  %.not = icmp eq i32 %2, 0
  %spec.select.idx = select i1 %.not, i64 6, i64 0
  %spec.select = getelementptr inbounds nuw i8, ptr %0, i64 %spec.select.idx
  %3 = tail call i32 @xstrncasecmp(ptr noundef %spec.select, ptr noundef nonnull @.str.14, i64 noundef 4) #13
  %.not6 = icmp eq i32 %3, 0
  %.1.idx = select i1 %.not6, i64 4, i64 0
  %.1 = getelementptr inbounds nuw i8, ptr %spec.select, i64 %.1.idx
  %4 = tail call i32 @slurm_top_job(ptr noundef %.1) #13
  %.not7 = icmp eq i32 %4, 0
  br i1 %.not7, label %13, label %5

5:                                                ; preds = %1
  store i32 1, ptr @exit_code, align 4
  %6 = load i32, ptr @quiet_flag, align 4
  %.not8 = icmp eq i32 %6, 1
  br i1 %.not8, label %13, label %7

7:                                                ; preds = %5
  %8 = load ptr, ptr @stderr, align 8
  %9 = tail call ptr @__errno_location() #14
  %10 = load i32, ptr %9, align 4
  %11 = tail call ptr @slurm_strerror(i32 noundef %10) #13
  %12 = tail call i32 (ptr, ptr, ...) @fprintf(ptr noundef %8, ptr noundef nonnull @.str.5, ptr noundef %11, ptr noundef %.1) #15
  br label %13

13:                                               ; preds = %5, %7, %1
  ret void
}